Certificate:
    Data:
        Version: 3 (0x2)
        Serial Number: 3 (0x3)
        Signature Algorithm: sha256WithRSAEncryption
        Issuer: C=FR, ST=Radius, L=Somewhere, O=Example Inc/emailAddress=admin@example.org, CN=Example Certificate Authority
        Validity
            Not Before: Aug 23 23:57:32 2020 GMT
            Not After : Oct 22 23:57:32 2020 GMT
        Subject: C=FR, ST=Radius, O=Example Inc, CN=Example user/emailAddress=user.example@example.org
        Subject Public Key Info:
            Public Key Algorithm: rsaEncryption
                RSA Public-Key: (2048 bit)
                Modulus:
                    00:e4:00:9e:dd:c3:23:74:d5:59:20:35:45:76:70:
                    a1:d8:8d:04:fe:af:19:e7:00:86:c2:f5:67:53:4e:
                    32:78:aa:06:72:8a:d7:21:4b:d3:47:bc:91:d6:a2:
                    6e:6a:ce:ad:0c:dd:22:45:ad:a0:8b:1f:bc:ba:79:
                    b6:5f:d4:19:18:34:2d:dc:89:a4:02:25:eb:29:82:
                    8c:d3:69:35:86:d6:a0:57:51:44:7c:49:4c:2d:74:
                    98:c7:7c:a5:d7:52:2e:6a:53:61:a5:1b:1b:a6:ba:
                    4f:02:7a:98:3a:7e:73:85:90:8a:6c:7e:8e:94:b5:
                    b5:19:fb:51:87:fc:1c:13:11:98:5a:ae:b2:f1:bb:
                    55:aa:e4:5e:45:05:f4:14:e1:01:d0:48:b3:55:67:
                    da:d3:f9:dc:d5:e6:95:28:64:24:aa:bc:e2:2d:2d:
                    18:28:4f:b6:aa:7a:a8:72:e5:34:98:8c:f2:80:0d:
                    ce:8c:58:67:78:c4:13:17:37:8a:6d:b4:dc:d1:5f:
                    36:6f:cf:29:9b:29:6e:55:6c:05:db:3d:dc:21:b2:
                    87:fa:6d:5b:a7:03:b8:88:40:93:93:1a:b9:07:1a:
                    0b:75:59:3c:f7:07:23:ee:a5:d9:19:b8:61:02:5a:
                    91:ab:dc:c4:d8:77:b4:6a:e3:5c:a1:59:0c:64:7d:
                    1d:f1
                Exponent: 65537 (0x10001)
        X509v3 extensions:
            X509v3 Basic Constraints: 
                CA:FALSE
            X509v3 Key Usage: 
                Digital Signature, Non Repudiation, Key Encipherment
            X509v3 Extended Key Usage: 
                TLS Web Client Authentication
            X509v3 CRL Distribution Points: 

                Full Name:
                  URI:http://www.example.com/example_ca.crl

            Authority Information Access: 
                OCSP - URI:http://www.example.org/ocsp

            X509v3 Subject Alternative Name: 
                email:user@example.org
    Signature Algorithm: sha256WithRSAEncryption
         86:db:ab:64:4e:78:8a:61:26:4a:7b:0e:07:22:1f:a5:9f:72:
         1a:24:d0:8a:71:03:31:f6:19:c0:5c:af:eb:41:10:89:19:b9:
         f8:db:02:64:0a:a1:43:68:4f:97:3e:99:b6:63:89:28:df:e4:
         a3:7c:44:35:0d:01:b2:61:19:dd:1a:3a:75:1f:85:90:cf:a7:
         d6:d0:ef:1a:b3:14:89:73:7d:c7:d3:df:76:d9:0a:3d:04:a0:
         84:27:ef:8e:6c:45:ae:47:19:fb:ec:31:2a:54:10:48:02:da:
         09:f9:3a:41:ab:07:31:d7:90:00:e8:db:73:79:df:c0:70:3a:
         7a:bc:6f:b9:30:f5:32:46:91:09:58:28:16:80:dd:77:e3:20:
         bc:66:bc:74:58:b5:03:41:e7:ee:5c:33:93:33:0c:a7:10:b1:
         48:1e:f6:d4:9d:9a:5d:35:39:a8:11:da:81:c3:bd:ac:11:0f:
         99:d4:54:79:29:b9:66:82:7c:48:99:19:3e:a0:52:19:8a:dc:
         55:a6:d0:de:46:1b:87:60:6f:61:33:17:60:93:05:e0:c9:05:
         85:07:e6:70:e5:39:1b:b1:0e:5b:08:76:da:09:6e:49:fc:d7:
         16:38:f8:17:d7:3b:d4:b6:06:e2:22:41:2c:48:54:ba:6e:09:
         7e:05:bd:7f
-----BEGIN CERTIFICATE-----
MIIEQTCCAymgAwIBAgIBAzANBgkqhkiG9w0BAQsFADCBkjELMAkGA1UEBhMCRlIx
DzANBgNVBAgMBlJhZGl1czESMBAGA1UEBwwJU29tZXdoZXJlMRQwEgYDVQQKDAtF
eGFtcGxlIEluYzEgMB4GCSqGSIb3DQEJARYRYWRtaW5AZXhhbXBsZS5vcmcxJjAk
BgNVBAMMHUV4YW1wbGUgQ2VydGlmaWNhdGUgQXV0aG9yaXR5MB4XDTIwMDgyMzIz
NTczMloXDTIwMTAyMjIzNTczMlowdDELMAkGA1UEBhMCRlIxDzANBgNVBAgMBlJh
ZGl1czEUMBIGA1UECgwLRXhhbXBsZSBJbmMxFTATBgNVBAMMDEV4YW1wbGUgdXNl
cjEnMCUGCSqGSIb3DQEJARYYdXNlci5leGFtcGxlQGV4YW1wbGUub3JnMIIBIjAN
BgkqhkiG9w0BAQEFAAOCAQ8AMIIBCgKCAQEA5ACe3cMjdNVZIDVFdnCh2I0E/q8Z
5wCGwvVnU04yeKoGcorXIUvTR7yR1qJuas6tDN0iRa2gix+8unm2X9QZGDQt3Imk
AiXrKYKM02k1htagV1FEfElMLXSYx3yl11IualNhpRsbprpPAnqYOn5zhZCKbH6O
lLW1GftRh/wcExGYWq6y8btVquReRQX0FOEB0EizVWfa0/nc1eaVKGQkqrziLS0Y
KE+2qnqocuU0mIzygA3OjFhneMQTFzeKbbTc0V82b88pmyluVWwF2z3cIbKH+m1b
pwO4iECTkxq5BxoLdVk89wcj7qXZGbhhAlqRq9zE2He0auNcoVkMZH0d8QIDAQAB
o4G+MIG7MAkGA1UdEwQCMAAwCwYDVR0PBAQDAgXgMBMGA1UdJQQMMAoGCCsGAQUF
BwMCMDYGA1UdHwQvMC0wK6ApoCeGJWh0dHA6Ly93d3cuZXhhbXBsZS5jb20vZXhh
bXBsZV9jYS5jcmwwNwYIKwYBBQUHAQEEKzApMCcGCCsGAQUFBzABhhtodHRwOi8v
d3d3LmV4YW1wbGUub3JnL29jc3AwGwYDVR0RBBQwEoEQdXNlckBleGFtcGxlLm9y
ZzANBgkqhkiG9w0BAQsFAAOCAQEAhturZE54imEmSnsOByIfpZ9yGiTQinEDMfYZ
wFyv60EQiRm5+NsCZAqhQ2hPlz6ZtmOJKN/ko3xENQ0BsmEZ3Ro6dR+FkM+n1tDv
GrMUiXN9x9PfdtkKPQSghCfvjmxFrkcZ++wxKlQQSALaCfk6QasHMdeQAOjbc3nf
wHA6erxvuTD1MkaRCVgoFoDdd+MgvGa8dFi1A0Hn7lwzkzMMpxCxSB721J2aXTU5
qBHagcO9rBEPmdRUeSm5ZoJ8SJkZPqBSGYrcVabQ3kYbh2BvYTMXYJMF4MkFhQfm
cOU5G7EOWwh22gluSfzXFjj4F9c71LYG4iJBLEhUum4JfgW9fw==
-----END CERTIFICATE-----
