Certificate:
    Data:
        Version: 3 (0x2)
        Serial Number: 4 (0x4)
        Signature Algorithm: ecdsa-with-SHA256
        Issuer: C=FR, ST=Radius, L=Somewhere, O=Example Inc/emailAddress=admin@example.org, CN=Example Certificate Authority
        Validity
            Not Before: Aug 23 23:57:32 2020 GMT
            Not After : Oct 22 23:57:32 2020 GMT
        Subject: C=FR, ST=Radius, O=Example Inc, CN=Example user/emailAddress=user.example@example.org
        Subject Public Key Info:
            Public Key Algorithm: id-ecPublicKey
                Public-Key: (256 bit)
                pub:
                    04:64:37:69:60:9f:fd:36:12:d9:58:ad:58:6b:13:
                    61:8e:b8:13:55:06:99:00:1f:af:0d:2f:96:db:ac:
                    33:ec:b6:dc:a2:95:23:74:03:65:b6:e0:68:b5:f9:
                    b6:e3:35:7a:23:87:05:f0:ae:2f:51:0e:c6:9d:64:
                    12:55:a1:cc:4e
                ASN1 OID: prime256v1
                NIST CURVE: P-256
        X509v3 extensions:
            X509v3 Basic Constraints: 
                CA:FALSE
            X509v3 Key Usage: 
                Digital Signature, Non Repudiation, Key Encipherment
            X509v3 Extended Key Usage: 
                TLS Web Client Authentication
            X509v3 CRL Distribution Points: 

                Full Name:
                  URI:http://www.example.com/example_ca.crl

            Authority Information Access: 
                OCSP - URI:http://www.example.org/ocsp

            X509v3 Subject Alternative Name: 
                email:user@example.org
    Signature Algorithm: ecdsa-with-SHA256
         30:46:02:21:00:da:cf:33:53:98:f3:d9:c6:25:46:ca:dc:07:
         6f:71:b6:35:6f:ee:01:ee:74:56:7c:92:fd:14:fd:6e:8f:59:
         bb:02:21:00:d4:d0:6e:84:b9:8b:33:34:4e:fb:e0:86:dd:f4:
         ed:d6:de:76:1d:ed:29:c5:3e:75:05:eb:f4:8b:7c:cc:cb:3e
-----BEGIN CERTIFICATE-----
MIICtjCCAlugAwIBAgIBBDAKBggqhkjOPQQDAjCBkjELMAkGA1UEBhMCRlIxDzAN
BgNVBAgMBlJhZGl1czESMBAGA1UEBwwJU29tZXdoZXJlMRQwEgYDVQQKDAtFeGFt
cGxlIEluYzEgMB4GCSqGSIb3DQEJARYRYWRtaW5AZXhhbXBsZS5vcmcxJjAkBgNV
BAMMHUV4YW1wbGUgQ2VydGlmaWNhdGUgQXV0aG9yaXR5MB4XDTIwMDgyMzIzNTcz
MloXDTIwMTAyMjIzNTczMlowdDELMAkGA1UEBhMCRlIxDzANBgNVBAgMBlJhZGl1
czEUMBIGA1UECgwLRXhhbXBsZSBJbmMxFTATBgNVBAMMDEV4YW1wbGUgdXNlcjEn
MCUGCSqGSIb3DQEJARYYdXNlci5leGFtcGxlQGV4YW1wbGUub3JnMFkwEwYHKoZI
zj0CAQYIKoZIzj0DAQcDQgAEZDdpYJ/9NhLZWK1YaxNhjrgTVQaZAB+vDS+W26wz
7LbcopUjdANltuBotfm24zV6I4cF8K4vUQ7GnWQSVaHMTqOBvjCBuzAJBgNVHRME
AjAAMAsGA1UdDwQEAwIF4DATBgNVHSUEDDAKBggrBgEFBQcDAjA2BgNVHR8ELzAt
MCugKaAnhiVodHRwOi8vd3d3LmV4YW1wbGUuY29tL2V4YW1wbGVfY2EuY3JsMDcG
CCsGAQUFBwEBBCswKTAnBggrBgEFBQcwAYYbaHR0cDovL3d3dy5leGFtcGxlLm9y
Zy9vY3NwMBsGA1UdEQQUMBKBEHVzZXJAZXhhbXBsZS5vcmcwCgYIKoZIzj0EAwID
SQAwRgIhANrPM1OY89nGJUbK3AdvcbY1b+4B7nRWfJL9FP1uj1m7AiEA1NBuhLmL
MzRO++CG3fTt1t52He0pxT51Bev0i3zMyz4=
-----END CERTIFICATE-----
