Certificate:
    Data:
        Version: 3 (0x2)
        Serial Number: 5 (0x5)
        Signature Algorithm: sha256WithRSAEncryption
        Issuer: C=FR, ST=Radius, L=Somewhere, O=Example Inc/emailAddress=admin@example.org, CN=Example Certificate Authority
        Validity
            Not Before: Aug 23 23:57:32 2020 GMT
            Not After : Oct 22 23:57:32 2020 GMT
        Subject: C=FR, ST=Radius, O=Example Inc, CN=Example OCSP Responder Certificate/emailAddress=admin@example.org
        Subject Public Key Info:
            Public Key Algorithm: rsaEncryption
                RSA Public-Key: (2048 bit)
                Modulus:
                    00:c9:6b:2a:dd:e8:97:b7:ee:b3:d4:71:9d:66:ed:
                    cb:82:3f:50:ec:66:c3:b2:1a:85:02:79:49:db:a9:
                    94:66:d5:de:e5:8b:d8:1f:fb:50:5e:b7:ff:eb:e1:
                    23:b6:ed:ed:5f:c8:b1:0c:15:ff:81:28:fb:30:62:
                    5e:48:da:00:82:2c:fa:91:bd:42:8f:83:e7:84:58:
                    7b:26:8e:e7:36:70:5b:37:cb:b7:4e:7e:05:80:28:
                    9e:d4:51:e1:1f:87:a5:42:7a:4b:56:c8:ff:9e:d4:
                    68:51:7e:f8:34:3a:d8:7f:ca:ec:a8:4d:51:c5:ad:
                    2a:f3:c9:91:04:0c:57:2c:37:2c:a3:92:54:13:bd:
                    bb:90:62:6e:88:82:a1:11:32:f1:ae:87:1f:09:6c:
                    9d:52:78:05:18:32:ce:6e:14:e4:2a:27:55:5e:7d:
                    55:99:2d:d6:b4:70:b2:77:c6:3c:32:48:0b:34:3d:
                    bd:ea:b4:ce:83:04:75:98:59:c8:6b:95:f3:97:d2:
                    aa:44:21:b3:19:d3:07:bf:20:96:50:54:cf:c1:70:
                    bb:23:4b:e2:4a:21:45:15:f3:9d:b8:ae:aa:ab:fa:
                    cd:77:42:b4:b0:26:e3:d2:6c:cf:37:1e:ba:c8:fb:
                    76:ae:fb:d3:3a:4a:2f:30:b0:e1:bb:98:48:0c:e7:
                    a6:8b
                Exponent: 65537 (0x10001)
        X509v3 extensions:
            X509v3 Basic Constraints: 
                CA:FALSE
            X509v3 Key Usage: 
                Digital Signature, Non Repudiation, Key Encipherment
            X509v3 Extended Key Usage: 
                OCSP Signing
    Signature Algorithm: sha256WithRSAEncryption
         c8:5b:61:9e:c3:59:4e:8d:3f:3f:eb:8b:74:8a:8b:6c:5a:1f:
         ee:63:76:e5:1f:66:1e:84:93:a6:b8:c7:bc:22:d7:26:15:44:
         c9:d3:a5:82:8c:f7:fa:f0:5c:8b:de:5d:f5:36:e3:2e:3d:f4:
         f3:21:89:c0:91:a5:c4:34:c7:a6:db:c8:8d:00:81:0e:ec:2a:
         45:06:e2:98:2f:f1:6b:f4:0c:c1:4f:d4:99:27:0b:d4:4b:ae:
         b5:f9:7f:97:a9:fb:20:46:6d:43:eb:28:12:99:3f:2a:a0:26:
         74:80:eb:fa:59:6b:18:24:99:0a:59:8f:0d:70:65:9a:22:4c:
         0e:21:f3:14:39:ef:52:93:ba:6d:f4:3a:b4:1c:79:17:e3:77:
         3e:d2:34:24:d3:9c:f6:ca:fa:7d:3a:2c:59:7c:62:96:cb:d8:
         ce:8b:2c:68:d0:34:80:ba:3d:9f:16:cc:f6:73:d7:c3:36:f7:
         25:1b:d3:23:9f:f5:9b:ca:f5:5f:62:f1:47:e5:e1:9a:92:e4:
         62:7f:22:36:58:3e:ca:5e:12:a7:32:20:ec:af:9f:4f:cc:b1:
         15:31:15:cb:cc:03:72:27:88:cc:c4:88:86:6a:50:83:e8:9b:
         3a:4c:8d:89:8f:3b:f1:06:db:04:f4:fb:d9:b7:c3:41:18:0f:
         3c:0f:e2:05
-----BEGIN CERTIFICATE-----
MIIDwTCCAqmgAwIBAgIBBTANBgkqhkiG9w0BAQsFADCBkjELMAkGA1UEBhMCRlIx
DzANBgNVBAgMBlJhZGl1czESMBAGA1UEBwwJU29tZXdoZXJlMRQwEgYDVQQKDAtF
eGFtcGxlIEluYzEgMB4GCSqGSIb3DQEJARYRYWRtaW5AZXhhbXBsZS5vcmcxJjAk
BgNVBAMMHUV4YW1wbGUgQ2VydGlmaWNhdGUgQXV0aG9yaXR5MB4XDTIwMDgyMzIz
NTczMloXDTIwMTAyMjIzNTczMlowgYMxCzAJBgNVBAYTAkZSMQ8wDQYDVQQIDAZS
YWRpdXMxFDASBgNVBAoMC0V4YW1wbGUgSW5jMSswKQYDVQQDDCJFeGFtcGxlIE9D
U1AgUmVzcG9uZGVyIENlcnRpZmljYXRlMSAwHgYJKoZIhvcNAQkBFhFhZG1pbkBl
eGFtcGxlLm9yZzCCASIwDQYJKoZIhvcNAQEBBQADggEPADCCAQoCggEBAMlrKt3o
l7fus9RxnWbty4I/UOxmw7IahQJ5SduplGbV3uWL2B/7UF63/+vhI7bt7V/IsQwV
/4Eo+zBiXkjaAIIs+pG9Qo+D54RYeyaO5zZwWzfLt05+BYAontRR4R+HpUJ6S1bI
/57UaFF++DQ62H/K7KhNUcWtKvPJkQQMVyw3LKOSVBO9u5BiboiCoREy8a6HHwls
nVJ4BRgyzm4U5ConVV59VZkt1rRwsnfGPDJICzQ9veq0zoMEdZhZyGuV85fSqkQh
sxnTB78gllBUz8FwuyNL4kohRRXznbiuqqv6zXdCtLAm49Jszzceusj7dq770zpK
LzCw4buYSAznposCAwEAAaMvMC0wCQYDVR0TBAIwADALBgNVHQ8EBAMCBeAwEwYD
VR0lBAwwCgYIKwYBBQUHAwkwDQYJKoZIhvcNAQELBQADggEBAMhbYZ7DWU6NPz/r
i3SKi2xaH+5jduUfZh6Ek6a4x7wi1yYVRMnTpYKM9/rwXIveXfU24y499PMhicCR
pcQ0x6bbyI0AgQ7sKkUG4pgv8Wv0DMFP1JknC9RLrrX5f5ep+yBGbUPrKBKZPyqg
JnSA6/pZaxgkmQpZjw1wZZoiTA4h8xQ571KTum30OrQceRfjdz7SNCTTnPbK+n06
LFl8YpbL2M6LLGjQNIC6PZ8WzPZz18M29yUb0yOf9ZvK9V9i8Ufl4ZqS5GJ/IjZY
PspeEqcyIOyvn0/MsRUxFcvMA3IniMzEiIZqUIPomzpMjYmPO/EG2wT0+9m3w0EY
DzwP4gU=
-----END CERTIFICATE-----
