Certificate:
    Data:
        Version: 3 (0x2)
        Serial Number: 2 (0x2)
        Signature Algorithm: ecdsa-with-SHA256
        Issuer: C=FR, ST=Radius, L=Somewhere, O=Example Inc/emailAddress=admin@example.org, CN=Example Certificate Authority
        Validity
            Not Before: Aug 23 23:57:32 2020 GMT
            Not After : Oct 22 23:57:32 2020 GMT
        Subject: C=FR, ST=Radius, O=Example Inc, CN=Example Server Certificate/emailAddress=admin@example.org
        Subject Public Key Info:
            Public Key Algorithm: id-ecPublicKey
                Public-Key: (256 bit)
                pub:
                    04:2f:3e:c3:50:fb:fa:8e:64:ef:e5:c9:30:f7:6a:
                    1f:6b:7f:a1:f8:07:41:f9:4e:f6:36:36:5c:fd:b1:
                    40:fe:ff:06:a8:de:b2:63:c9:ce:81:bd:40:30:84:
                    db:2e:57:e2:03:ea:ef:d1:09:22:39:d0:3b:fb:64:
                    8f:72:71:f7:69
                ASN1 OID: prime256v1
                NIST CURVE: P-256
        X509v3 extensions:
            X509v3 Basic Constraints: 
                CA:FALSE
            X509v3 Key Usage: 
                Digital Signature, Non Repudiation, Key Encipherment
            X509v3 Extended Key Usage: 
                TLS Web Server Authentication, 1.3.6.1.5.5.7.3.14
            X509v3 CRL Distribution Points: 

                Full Name:
                  URI:http://www.example.com/example_ca.crl

            Authority Information Access: 
                OCSP - URI:http://www.example.org/ocsp

            X509v3 Subject Alternative Name: 
                DNS:radius.example.org, othername:<unsupported>
    Signature Algorithm: ecdsa-with-SHA256
         30:46:02:21:00:82:05:1b:2b:fd:eb:bf:6b:a5:59:26:de:07:
         f0:b4:a0:a9:e0:99:5c:de:95:d4:d5:4d:ba:91:83:ba:80:ed:
         4d:02:21:00:f4:eb:fc:37:76:94:a4:bd:b2:7d:2a:e8:44:45:
         4d:a9:bf:4d:03:0d:62:ac:da:8c:21:3c:45:66:09:d2:e2:7b
-----BEGIN CERTIFICATE-----
MIIC5jCCAougAwIBAgIBAjAKBggqhkjOPQQDAjCBkjELMAkGA1UEBhMCRlIxDzAN
BgNVBAgMBlJhZGl1czESMBAGA1UEBwwJU29tZXdoZXJlMRQwEgYDVQQKDAtFeGFt
cGxlIEluYzEgMB4GCSqGSIb3DQEJARYRYWRtaW5AZXhhbXBsZS5vcmcxJjAkBgNV
BAMMHUV4YW1wbGUgQ2VydGlmaWNhdGUgQXV0aG9yaXR5MB4XDTIwMDgyMzIzNTcz
MloXDTIwMTAyMjIzNTczMlowezELMAkGA1UEBhMCRlIxDzANBgNVBAgMBlJhZGl1
czEUMBIGA1UECgwLRXhhbXBsZSBJbmMxIzAhBgNVBAMMGkV4YW1wbGUgU2VydmVy
IENlcnRpZmljYXRlMSAwHgYJKoZIhvcNAQkBFhFhZG1pbkBleGFtcGxlLm9yZzBZ
MBMGByqGSM49AgEGCCqGSM49AwEHA0IABC8+w1D7+o5k7+XJMPdqH2t/ofgHQflO
9jY2XP2xQP7/BqjesmPJzoG9QDCE2y5X4gPq79EJIjnQO/tkj3Jx92mjgecwgeQw
CQYDVR0TBAIwADALBgNVHQ8EBAMCBeAwHQYDVR0lBBYwFAYIKwYBBQUHAwEGCCsG
AQUFBwMOMDYGA1UdHwQvMC0wK6ApoCeGJWh0dHA6Ly93d3cuZXhhbXBsZS5jb20v
ZXhhbXBsZV9jYS5jcmwwNwYIKwYBBQUHAQEEKzApMCcGCCsGAQUFBzABhhtodHRw
Oi8vd3d3LmV4YW1wbGUub3JnL29jc3AwOgYDVR0RBDMwMYIScmFkaXVzLmV4YW1w
bGUub3JnoBsGCCsGAQUFBwgIoA8MDSouZXhhbXBsZS5jb20wCgYIKoZIzj0EAwID
SQAwRgIhAIIFGyv9679rpVkm3gfwtKCp4Jlc3pXU1U26kYO6gO1NAiEA9Ov8N3aU
pL2yfSroREVNqb9NAw1irNqMITxFZgnS4ns=
-----END CERTIFICATE-----
