Certificate:
    Data:
        Version: 3 (0x2)
        Serial Number: 1 (0x1)
        Signature Algorithm: sha256WithRSAEncryption
        Issuer: C=FR, ST=Radius, L=Somewhere, O=Example Inc/emailAddress=admin@example.org, CN=Example Certificate Authority
        Validity
            Not Before: Aug 23 23:57:32 2020 GMT
            Not After : Oct 22 23:57:32 2020 GMT
        Subject: C=FR, ST=Radius, O=Example Inc, CN=Example Server Certificate/emailAddress=admin@example.org
        Subject Public Key Info:
            Public Key Algorithm: rsaEncryption
                RSA Public-Key: (2048 bit)
                Modulus:
                    00:f7:f7:20:8b:ca:43:2d:09:bc:35:bb:22:76:31:
                    d4:bb:f7:c8:75:46:22:ce:f0:24:7f:21:fe:fd:74:
                    91:46:32:22:39:9e:6e:93:ff:c8:06:2b:9e:1d:07:
                    c5:c5:83:e1:e8:bb:fa:e5:f9:42:ce:d1:a8:d0:8f:
                    f1:93:25:fe:f6:91:6e:20:7c:f2:d1:8e:a4:82:e2:
                    82:23:9e:31:c8:86:21:44:5f:1e:d6:b9:f8:00:e9:
                    d8:d8:7f:aa:cf:40:02:6c:53:30:0b:a5:c9:bf:b0:
                    a8:6b:a4:ee:24:20:ec:d2:c0:56:ac:5b:2b:f6:eb:
                    5a:e6:35:60:09:21:04:de:c7:cc:64:10:32:b0:3b:
                    f1:42:6d:ee:d7:df:09:d9:31:90:30:d0:ed:fc:4a:
                    86:48:99:a5:b1:ed:9c:09:da:36:a8:4e:b3:be:fd:
                    a1:3a:0d:13:b5:af:42:19:26:94:3e:f0:04:35:92:
                    15:08:4e:56:bc:58:57:1e:ed:20:5f:7d:9a:2b:e4:
                    10:f9:8b:53:a1:81:bf:7e:fa:44:ee:ae:d5:ef:83:
                    fb:10:c7:19:35:64:d9:58:88:d5:7e:71:89:63:17:
                    0b:97:3a:e8:a1:b8:dc:1f:04:d7:87:07:cb:4b:a8:
                    0c:05:69:02:09:70:5a:37:56:34:b6:3c:7c:b2:38:
                    75:37
                Exponent: 65537 (0x10001)
        X509v3 extensions:
            X509v3 Basic Constraints: 
                CA:FALSE
            X509v3 Key Usage: 
                Digital Signature, Non Repudiation, Key Encipherment
            X509v3 Extended Key Usage: 
                TLS Web Server Authentication, 1.3.6.1.5.5.7.3.14
            X509v3 CRL Distribution Points: 

                Full Name:
                  URI:http://www.example.com/example_ca.crl

            Authority Information Access: 
                OCSP - URI:http://www.example.org/ocsp

            X509v3 Subject Alternative Name: 
                DNS:radius.example.org, othername:<unsupported>
    Signature Algorithm: sha256WithRSAEncryption
         ba:bc:76:f7:a3:a3:cb:d1:17:ea:95:df:d5:64:db:b5:ac:1f:
         c0:ba:7a:ff:76:d8:9b:e5:06:81:09:86:ed:a8:b1:a0:20:86:
         b5:54:0d:9f:64:5c:e3:0b:8d:40:98:d2:c3:53:7c:31:bb:c4:
         fe:13:ae:11:1f:28:f7:fa:cc:91:f5:4a:60:e0:86:6f:b0:0c:
         cf:37:59:b8:d3:19:01:d5:4b:52:2b:db:50:70:fa:23:f3:af:
         0d:52:0e:c3:46:0b:9e:2f:f3:db:3c:db:0b:67:fa:75:2a:a5:
         fe:bf:36:ef:31:94:60:f6:60:68:4d:f2:28:0e:18:b0:61:83:
         b0:4d:b9:88:b8:60:f4:97:9f:15:cd:e3:57:eb:0b:72:80:86:
         f2:40:27:c1:0a:29:ae:f8:40:06:79:fc:4f:f1:8e:10:96:5b:
         d4:70:9a:3a:a1:88:10:a6:18:14:82:a2:27:81:f2:c8:aa:d0:
         f2:87:e8:17:05:f5:8f:4a:4d:10:d7:c8:f3:3d:cb:a7:19:cb:
         24:a8:13:1b:3f:15:0e:8d:c8:94:74:3e:cb:70:0a:88:a9:98:
         da:5f:7a:ce:67:1b:7b:ac:79:77:d1:3c:01:a2:85:93:89:58:
         ab:6d:d9:b6:69:49:02:b0:f9:70:2a:07:08:ef:0b:d5:e5:9b:
         49:16:b4:63
-----BEGIN CERTIFICATE-----
MIIEcTCCA1mgAwIBAgIBATANBgkqhkiG9w0BAQsFADCBkjELMAkGA1UEBhMCRlIx
DzANBgNVBAgMBlJhZGl1czESMBAGA1UEBwwJU29tZXdoZXJlMRQwEgYDVQQKDAtF
eGFtcGxlIEluYzEgMB4GCSqGSIb3DQEJARYRYWRtaW5AZXhhbXBsZS5vcmcxJjAk
BgNVBAMMHUV4YW1wbGUgQ2VydGlmaWNhdGUgQXV0aG9yaXR5MB4XDTIwMDgyMzIz
NTczMloXDTIwMTAyMjIzNTczMlowezELMAkGA1UEBhMCRlIxDzANBgNVBAgMBlJh
ZGl1czEUMBIGA1UECgwLRXhhbXBsZSBJbmMxIzAhBgNVBAMMGkV4YW1wbGUgU2Vy
dmVyIENlcnRpZmljYXRlMSAwHgYJKoZIhvcNAQkBFhFhZG1pbkBleGFtcGxlLm9y
ZzCCASIwDQYJKoZIhvcNAQEBBQADggEPADCCAQoCggEBAPf3IIvKQy0JvDW7InYx
1Lv3yHVGIs7wJH8h/v10kUYyIjmebpP/yAYrnh0HxcWD4ei7+uX5Qs7RqNCP8ZMl
/vaRbiB88tGOpILigiOeMciGIURfHta5+ADp2Nh/qs9AAmxTMAulyb+wqGuk7iQg
7NLAVqxbK/brWuY1YAkhBN7HzGQQMrA78UJt7tffCdkxkDDQ7fxKhkiZpbHtnAna
NqhOs779oToNE7WvQhkmlD7wBDWSFQhOVrxYVx7tIF99mivkEPmLU6GBv376RO6u
1e+D+xDHGTVk2ViI1X5xiWMXC5c66KG43B8E14cHy0uoDAVpAglwWjdWNLY8fLI4
dTcCAwEAAaOB5zCB5DAJBgNVHRMEAjAAMAsGA1UdDwQEAwIF4DAdBgNVHSUEFjAU
BggrBgEFBQcDAQYIKwYBBQUHAw4wNgYDVR0fBC8wLTAroCmgJ4YlaHR0cDovL3d3
dy5leGFtcGxlLmNvbS9leGFtcGxlX2NhLmNybDA3BggrBgEFBQcBAQQrMCkwJwYI
KwYBBQUHMAGGG2h0dHA6Ly93d3cuZXhhbXBsZS5vcmcvb2NzcDA6BgNVHREEMzAx
ghJyYWRpdXMuZXhhbXBsZS5vcmegGwYIKwYBBQUHCAigDwwNKi5leGFtcGxlLmNv
bTANBgkqhkiG9w0BAQsFAAOCAQEAurx296Ojy9EX6pXf1WTbtawfwLp6/3bYm+UG
gQmG7aixoCCGtVQNn2Rc4wuNQJjSw1N8MbvE/hOuER8o9/rMkfVKYOCGb7AMzzdZ
uNMZAdVLUivbUHD6I/OvDVIOw0YLni/z2zzbC2f6dSql/r827zGUYPZgaE3yKA4Y
sGGDsE25iLhg9JefFc3jV+sLcoCG8kAnwQoprvhABnn8T/GOEJZb1HCaOqGIEKYY
FIKiJ4HyyKrQ8ofoFwX1j0pNENfI8z3LpxnLJKgTGz8VDo3IlHQ+y3AKiKmY2l96
zmcbe6x5d9E8AaKFk4lYq23ZtmlJArD5cCoHCO8L1eWbSRa0Yw==
-----END CERTIFICATE-----
