Certificate:
    Data:
        Version: 3 (0x2)
        Serial Number: 6 (0x6)
        Signature Algorithm: ecdsa-with-SHA256
        Issuer: C=FR, ST=Radius, L=Somewhere, O=Example Inc/emailAddress=admin@example.org, CN=Example Certificate Authority
        Validity
            Not Before: Aug 23 23:57:32 2020 GMT
            Not After : Oct 22 23:57:32 2020 GMT
        Subject: C=FR, ST=Radius, O=Example Inc, CN=Example OCSP Responder Certificate/emailAddress=admin@example.org
        Subject Public Key Info:
            Public Key Algorithm: id-ecPublicKey
                Public-Key: (256 bit)
                pub:
                    04:c7:15:50:02:ba:7b:9c:3b:f7:a1:0e:9f:d0:29:
                    d6:51:67:55:25:af:64:54:16:16:f1:1d:d5:40:e1:
                    dc:65:0a:38:d1:2e:df:fc:63:b4:b6:2f:4d:c3:90:
                    c5:44:a4:b5:08:41:42:4f:a2:08:26:20:b2:68:9c:
                    cb:44:8e:5c:83
                ASN1 OID: prime256v1
                NIST CURVE: P-256
        X509v3 extensions:
            X509v3 Basic Constraints: 
                CA:FALSE
            X509v3 Key Usage: 
                Digital Signature, Non Repudiation, Key Encipherment
            X509v3 Extended Key Usage: 
                OCSP Signing
    Signature Algorithm: ecdsa-with-SHA256
         30:44:02:20:13:c8:6c:81:8c:7d:d4:fa:30:e8:15:b2:7f:1b:
         e7:ce:a9:de:07:0a:01:3e:a1:29:e9:f7:fd:81:39:7a:2f:56:
         02:20:54:bf:64:dd:69:8c:09:00:22:d3:8d:ea:b5:bd:40:7e:
         f5:2e:d3:e4:82:26:f3:f8:7e:8a:39:3e:5f:38:ae:0b
-----BEGIN CERTIFICATE-----
MIICNDCCAdugAwIBAgIBBjAKBggqhkjOPQQDAjCBkjELMAkGA1UEBhMCRlIxDzAN
BgNVBAgMBlJhZGl1czESMBAGA1UEBwwJU29tZXdoZXJlMRQwEgYDVQQKDAtFeGFt
cGxlIEluYzEgMB4GCSqGSIb3DQEJARYRYWRtaW5AZXhhbXBsZS5vcmcxJjAkBgNV
BAMMHUV4YW1wbGUgQ2VydGlmaWNhdGUgQXV0aG9yaXR5MB4XDTIwMDgyMzIzNTcz
MloXDTIwMTAyMjIzNTczMlowgYMxCzAJBgNVBAYTAkZSMQ8wDQYDVQQIDAZSYWRp
dXMxFDASBgNVBAoMC0V4YW1wbGUgSW5jMSswKQYDVQQDDCJFeGFtcGxlIE9DU1Ag
UmVzcG9uZGVyIENlcnRpZmljYXRlMSAwHgYJKoZIhvcNAQkBFhFhZG1pbkBleGFt
cGxlLm9yZzBZMBMGByqGSM49AgEGCCqGSM49AwEHA0IABMcVUAK6e5w796EOn9Ap
1lFnVSWvZFQWFvEd1UDh3GUKONEu3/xjtLYvTcOQxUSktQhBQk+iCCYgsmicy0SO
XIOjLzAtMAkGA1UdEwQCMAAwCwYDVR0PBAQDAgXgMBMGA1UdJQQMMAoGCCsGAQUF
BwMJMAoGCCqGSM49BAMCA0cAMEQCIBPIbIGMfdT6MOgVsn8b586p3gcKAT6hKen3
/YE5ei9WAiBUv2TdaYwJACLTjeq1vUB+9S7T5IIm8/h+ijk+XziuCw==
-----END CERTIFICATE-----
